target datalayout = "e-m:e-p270:32:32-p271:32:32-p272:64:64-i64:64-i128:128-f80:128-n8:16:32:64-S128"
target triple = "x86_64-pc-linux-gnu"

@ett_bacapp_value = internal global i32 0, align 4
@.str.3055 = private unnamed_addr constant [7 x i8] c"Date: \00", align 1
@.str.3056 = private unnamed_addr constant [7 x i8] c"Time: \00", align 1
@.str.3441 = private unnamed_addr constant [8 x i8] c"value: \00", align 1
@.str.3552 = private unnamed_addr constant [7 x i8] c"name: \00", align 1

; Function Attrs: null_pointer_is_valid sspstrong uwtable
define internal i32 @fApplicationTypes(ptr noundef %0, ptr noundef %1, ptr noundef %2, i32 noundef %3, ptr noundef %4) #0 {
  %6 = alloca ptr, align 8
  %7 = alloca ptr, align 8
  %8 = alloca ptr, align 8
  %9 = alloca i32, align 4
  %10 = alloca ptr, align 8
  store ptr %0, ptr %6, align 8
  store ptr %1, ptr %7, align 8
  store ptr %2, ptr %8, align 8
  store i32 %3, ptr %9, align 4
  store ptr %4, ptr %10, align 8
  %11 = load ptr, ptr %6, align 8
  %12 = load ptr, ptr %7, align 8
  %13 = load ptr, ptr %8, align 8
  %14 = load i32, ptr %9, align 4
  %15 = load ptr, ptr %10, align 8
  %16 = call i32 @fApplicationTypesEnumeratedSplit(ptr noundef %11, ptr noundef %12, ptr noundef %13, i32 noundef %14, ptr noundef %15, ptr noundef null, i32 noundef 0)
  ret i32 %16
}

; Function Attrs: null_pointer_is_valid sspstrong uwtable
define internal i32 @fDateTime(ptr noundef %0, ptr noundef %1, ptr noundef %2, i32 noundef %3, ptr noundef %4) #0 {
  %6 = alloca ptr, align 8
  %7 = alloca ptr, align 8
  %8 = alloca ptr, align 8
  %9 = alloca i32, align 4
  %10 = alloca ptr, align 8
  %11 = alloca ptr, align 8
  store ptr %0, ptr %6, align 8
  store ptr %1, ptr %7, align 8
  store ptr %2, ptr %8, align 8
  store i32 %3, ptr %9, align 4
  store ptr %4, ptr %10, align 8
  call void @llvm.lifetime.start.p0(i64 8, ptr %11) #7
  %12 = load ptr, ptr %8, align 8
  store ptr %12, ptr %11, align 8
  %13 = load ptr, ptr %10, align 8
  %14 = icmp ne ptr %13, null
  br i1 %14, label %15, label %22

15:                                               ; preds = %5
  %16 = load ptr, ptr %11, align 8
  %17 = load ptr, ptr %6, align 8
  %18 = load i32, ptr %9, align 4
  %19 = load i32, ptr @ett_bacapp_value, align 4
  %20 = load ptr, ptr %10, align 8
  %21 = call ptr @proto_tree_add_subtree(ptr noundef %16, ptr noundef %17, i32 noundef %18, i32 noundef 10, i32 noundef %19, ptr noundef null, ptr noundef %20)
  store ptr %21, ptr %11, align 8
  br label %22

22:                                               ; preds = %15, %5
  %23 = load ptr, ptr %6, align 8
  %24 = load ptr, ptr %7, align 8
  %25 = load ptr, ptr %11, align 8
  %26 = load i32, ptr %9, align 4
  %27 = call i32 @fDate(ptr noundef %23, ptr noundef %24, ptr noundef %25, i32 noundef %26, ptr noundef @.str.3055)
  store i32 %27, ptr %9, align 4
  %28 = load ptr, ptr %6, align 8
  %29 = load ptr, ptr %7, align 8
  %30 = load ptr, ptr %11, align 8
  %31 = load i32, ptr %9, align 4
  %32 = call i32 @fTime(ptr noundef %28, ptr noundef %29, ptr noundef %30, i32 noundef %31, ptr noundef @.str.3056)
  call void @llvm.lifetime.end.p0(i64 8, ptr %11) #7
  ret i32 %32
}

; Function Attrs: null_pointer_is_valid sspstrong uwtable
define internal i32 @fCharacterString(ptr noundef %0, ptr noundef %1, ptr noundef %2, i32 noundef %3, ptr noundef %4) #0 {
  %6 = alloca ptr, align 8
  %7 = alloca ptr, align 8
  %8 = alloca ptr, align 8
  %9 = alloca i32, align 4
  %10 = alloca ptr, align 8
  store ptr %0, ptr %6, align 8
  store ptr %1, ptr %7, align 8
  store ptr %2, ptr %8, align 8
  store i32 %3, ptr %9, align 4
  store ptr %4, ptr %10, align 8
  %11 = load ptr, ptr %6, align 8
  %12 = load ptr, ptr %7, align 8
  %13 = load ptr, ptr %8, align 8
  %14 = load i32, ptr %9, align 4
  %15 = load ptr, ptr %10, align 8
  %16 = call i32 @fCharacterStringBase(ptr noundef %11, ptr noundef %12, ptr noundef %13, i32 noundef %14, ptr noundef %15, i1 noundef zeroext false, i1 noundef zeroext false)
  ret i32 %16
}

; Function Attrs: nounwind null_pointer_is_valid sspstrong uwtable
define internal zeroext i1 @tag_is_context_specific(i8 noundef zeroext %0) #3 {
  %2 = alloca i8, align 1
  store i8 %0, ptr %2, align 1
  %3 = load i8, ptr %2, align 1
  %4 = zext i8 %3 to i32
  %5 = and i32 %4, 8
  %6 = icmp ne i32 %5, 0
  ret i1 %6
}

; Function Attrs: nounwind null_pointer_is_valid sspstrong uwtable
define internal zeroext i1 @tag_is_closing(i8 noundef zeroext %0) #3 {
  %2 = alloca i8, align 1
  store i8 %0, ptr %2, align 1
  %3 = load i8, ptr %2, align 1
  %4 = zext i8 %3 to i32
  %5 = and i32 %4, 7
  %6 = icmp eq i32 %5, 7
  ret i1 %6
}

; Function Attrs: null_pointer_is_valid sspstrong uwtable
define internal i32 @fTagHeader(ptr noundef %0, ptr noundef %1, i32 noundef %2, ptr noundef %3, ptr noundef %4, ptr noundef %5) #0 {
  %7 = alloca ptr, align 8
  %8 = alloca ptr, align 8
  %9 = alloca i32, align 4
  %10 = alloca ptr, align 8
  %11 = alloca ptr, align 8
  %12 = alloca ptr, align 8
  store ptr %0, ptr %7, align 8
  store ptr %1, ptr %8, align 8
  store i32 %2, ptr %9, align 4
  store ptr %3, ptr %10, align 8
  store ptr %4, ptr %11, align 8
  store ptr %5, ptr %12, align 8
  %13 = load ptr, ptr %7, align 8
  %14 = load ptr, ptr %8, align 8
  %15 = load i32, ptr %9, align 4
  %16 = load ptr, ptr %10, align 8
  %17 = load ptr, ptr %11, align 8
  %18 = load ptr, ptr %12, align 8
  %19 = call i32 @fTagHeaderTree(ptr noundef %13, ptr noundef %14, ptr noundef null, i32 noundef %15, ptr noundef %16, ptr noundef %17, ptr noundef %18)
  ret i32 %19
}

; Function Attrs: null_pointer_is_valid sspstrong uwtable
define internal i32 @fNameValue(ptr noundef %0, ptr noundef %1, ptr noundef %2, i32 noundef %3) #0 {
  %5 = alloca ptr, align 8
  %6 = alloca ptr, align 8
  %7 = alloca ptr, align 8
  %8 = alloca i32, align 4
  %9 = alloca i32, align 4
  %10 = alloca i8, align 1
  %11 = alloca i8, align 1
  %12 = alloca i32, align 4
  store ptr %0, ptr %5, align 8
  store ptr %1, ptr %6, align 8
  store ptr %2, ptr %7, align 8
  store i32 %3, ptr %8, align 4
  call void @llvm.lifetime.start.p0(i64 4, ptr %9) #7
  store i32 0, ptr %9, align 4
  call void @llvm.lifetime.start.p0(i64 1, ptr %10) #7
  call void @llvm.lifetime.start.p0(i64 1, ptr %11) #7
  call void @llvm.lifetime.start.p0(i64 4, ptr %12) #7
  br label %13

13:                                               ; preds = %77, %4
  %14 = load ptr, ptr %5, align 8
  %15 = load i32, ptr %8, align 4
  %16 = call i32 @tvb_reported_length_remaining(ptr noundef %14, i32 noundef %15)
  %17 = icmp sgt i32 %16, 0
  br i1 %17, label %18, label %78

18:                                               ; preds = %13
  %19 = load i32, ptr %8, align 4
  store i32 %19, ptr %9, align 4
  %20 = load ptr, ptr %5, align 8
  %21 = load ptr, ptr %6, align 8
  %22 = load i32, ptr %8, align 4
  %23 = call i32 @fTagHeader(ptr noundef %20, ptr noundef %21, i32 noundef %22, ptr noundef %10, ptr noundef %11, ptr noundef %12)
  %24 = load i8, ptr %11, align 1
  %25 = call zeroext i1 @tag_is_closing(i8 noundef zeroext %24)
  br i1 %25, label %26, label %27

26:                                               ; preds = %18
  br label %78

27:                                               ; preds = %18
  %28 = load i8, ptr %11, align 1
  %29 = call zeroext i1 @tag_is_context_specific(i8 noundef zeroext %28)
  br i1 %29, label %30, label %66

30:                                               ; preds = %27
  %31 = load i8, ptr %10, align 1
  %32 = zext i8 %31 to i32
  switch i32 %32, label %59 [
    i32 0, label %33
    i32 1, label %39
  ]

33:                                               ; preds = %30
  %34 = load ptr, ptr %5, align 8
  %35 = load ptr, ptr %6, align 8
  %36 = load ptr, ptr %7, align 8
  %37 = load i32, ptr %8, align 4
  %38 = call i32 @fCharacterString(ptr noundef %34, ptr noundef %35, ptr noundef %36, i32 noundef %37, ptr noundef @.str.3552)
  store i32 %38, ptr %8, align 4
  br label %65

39:                                               ; preds = %30
  %40 = load ptr, ptr %5, align 8
  %41 = load ptr, ptr %6, align 8
  %42 = load ptr, ptr %7, align 8
  %43 = load i32, ptr %8, align 4
  %44 = call i32 @fTagHeaderTree(ptr noundef %40, ptr noundef %41, ptr noundef %42, i32 noundef %43, ptr noundef %10, ptr noundef %11, ptr noundef %12)
  %45 = load i32, ptr %8, align 4
  %46 = add i32 %45, %44
  store i32 %46, ptr %8, align 4
  %47 = load ptr, ptr %5, align 8
  %48 = load ptr, ptr %6, align 8
  %49 = load ptr, ptr %7, align 8
  %50 = load i32, ptr %8, align 4
  %51 = call i32 @fDateTime(ptr noundef %47, ptr noundef %48, ptr noundef %49, i32 noundef %50, ptr noundef @.str.3441)
  store i32 %51, ptr %8, align 4
  %52 = load ptr, ptr %5, align 8
  %53 = load ptr, ptr %6, align 8
  %54 = load ptr, ptr %7, align 8
  %55 = load i32, ptr %8, align 4
  %56 = call i32 @fTagHeaderTree(ptr noundef %52, ptr noundef %53, ptr noundef %54, i32 noundef %55, ptr noundef %10, ptr noundef %11, ptr noundef %12)
  %57 = load i32, ptr %8, align 4
  %58 = add i32 %57, %56
  store i32 %58, ptr %8, align 4
  br label %65

59:                                               ; preds = %30
  %60 = load ptr, ptr %5, align 8
  %61 = load ptr, ptr %6, align 8
  %62 = load ptr, ptr %7, align 8
  %63 = load i32, ptr %8, align 4
  %64 = call i32 @fApplicationTypes(ptr noundef %60, ptr noundef %61, ptr noundef %62, i32 noundef %63, ptr noundef @.str.3441)
  store i32 %64, ptr %8, align 4
  br label %65

65:                                               ; preds = %59, %39, %33
  br label %72

66:                                               ; preds = %27
  %67 = load ptr, ptr %5, align 8
  %68 = load ptr, ptr %6, align 8
  %69 = load ptr, ptr %7, align 8
  %70 = load i32, ptr %8, align 4
  %71 = call i32 @fApplicationTypes(ptr noundef %67, ptr noundef %68, ptr noundef %69, i32 noundef %70, ptr noundef @.str.3441)
  store i32 %71, ptr %8, align 4
  br label %72

72:                                               ; preds = %66, %65
  %73 = load i32, ptr %8, align 4
  %74 = load i32, ptr %9, align 4
  %75 = icmp ule i32 %73, %74
  br i1 %75, label %76, label %77

76:                                               ; preds = %72
  br label %78

77:                                               ; preds = %72
  br label %13, !llvm.loop !105

78:                                               ; preds = %76, %26, %13
  %79 = load i32, ptr %8, align 4
  call void @llvm.lifetime.end.p0(i64 4, ptr %12) #7
  call void @llvm.lifetime.end.p0(i64 1, ptr %11) #7
  call void @llvm.lifetime.end.p0(i64 1, ptr %10) #7
  call void @llvm.lifetime.end.p0(i64 4, ptr %9) #7
  ret i32 %79
}