; Function Attrs: null_pointer_is_valid sspstrong uwtable
define internal fastcc i32 @fNameValue(ptr noundef nonnull %0, ptr noundef %1, ptr noundef %2, i32 noundef %3) unnamed_addr #0 {
  %5 = alloca i8, align 1
  %6 = alloca i8, align 1
  %7 = alloca i32, align 4
  call void @llvm.lifetime.start.p0(i64 1, ptr nonnull %5) #6
  call void @llvm.lifetime.start.p0(i64 1, ptr nonnull %6) #6
  call void @llvm.lifetime.start.p0(i64 4, ptr nonnull %7) #6
  br label %8

8:                                                ; preds = %35, %4
  %.0 = phi i32 [ %3, %4 ], [ %.2, %35 ]
  %9 = tail call i32 @tvb_reported_length_remaining(ptr noundef nonnull %0, i32 noundef %.0)
  %10 = icmp sgt i32 %9, 0
  br i1 %10, label %11, label %36

11:                                               ; preds = %8
  %12 = call fastcc range(i32 1, 8) i32 @fTagHeaderTree(ptr noundef nonnull %0, ptr noundef %1, ptr noundef null, i32 noundef %.0, ptr noundef nonnull %5, ptr noundef nonnull %6, ptr noundef nonnull %7)
  %13 = load i8, ptr %6, align 1
  %14 = and i8 %13, 7
  %15 = icmp eq i8 %14, 7
  br i1 %15, label %36, label %16

16:                                               ; preds = %11
  %17 = and i8 %13, 8
  %.not34 = icmp eq i8 %17, 0
  br i1 %.not34, label %33, label %18

18:                                               ; preds = %16
  %19 = load i8, ptr %5, align 1
  switch i8 %19, label %31 [
    i8 0, label %20
    i8 1, label %22
  ]

20:                                               ; preds = %18
  %21 = tail call fastcc i32 @fCharacterStringBase(ptr noundef nonnull %0, ptr noundef %1, ptr noundef %2, i32 noundef %.0, ptr noundef nonnull @.str.3552, i1 noundef zeroext false, i1 noundef zeroext false)
  br label %35

22:                                               ; preds = %18
  %23 = call fastcc i32 @fTagHeaderTree(ptr noundef %0, ptr noundef %1, ptr noundef %2, i32 noundef %.0, ptr noundef nonnull %5, ptr noundef nonnull %6, ptr noundef nonnull %7)
  %24 = add i32 %23, %.0
  %25 = load i32, ptr @ett_bacapp_value, align 4
  %26 = tail call ptr @proto_tree_add_subtree(ptr noundef %2, ptr noundef nonnull %0, i32 noundef %24, i32 noundef 10, i32 noundef %25, ptr noundef null, ptr noundef nonnull @.str.3441)
  %27 = tail call fastcc i32 @fDate(ptr noundef nonnull %0, ptr noundef %1, ptr noundef %26, i32 noundef %24, ptr noundef nonnull @.str.3055)
  %28 = tail call fastcc i32 @fTime(ptr noundef nonnull %0, ptr noundef %1, ptr noundef %26, i32 noundef %27, ptr noundef nonnull @.str.3056)
  %29 = call fastcc i32 @fTagHeaderTree(ptr noundef %0, ptr noundef %1, ptr noundef %2, i32 noundef %28, ptr noundef nonnull %5, ptr noundef nonnull %6, ptr noundef nonnull %7)
  %30 = add i32 %29, %28
  br label %35

31:                                               ; preds = %18
  %32 = tail call fastcc i32 @fApplicationTypesEnumeratedSplit(ptr noundef nonnull %0, ptr noundef %1, ptr noundef %2, i32 noundef %.0, ptr noundef nonnull @.str.3441, ptr noundef null, i32 noundef 0)
  br label %35

33:                                               ; preds = %16
  %34 = tail call fastcc i32 @fApplicationTypesEnumeratedSplit(ptr noundef nonnull %0, ptr noundef %1, ptr noundef %2, i32 noundef %.0, ptr noundef nonnull @.str.3441, ptr noundef null, i32 noundef 0)
  br label %35

35:                                               ; preds = %20, %22, %31, %33
  %.2 = phi i32 [ %32, %31 ], [ %30, %22 ], [ %21, %20 ], [ %34, %33 ]
  %.not = icmp ugt i32 %.2, %.0
  br i1 %.not, label %8, label %36, !llvm.loop !129

36:                                               ; preds = %35, %11, %8
  %.1 = phi i32 [ %.0, %11 ], [ %.2, %35 ], [ %.0, %8 ]
  call void @llvm.lifetime.end.p0(i64 4, ptr nonnull %7) #6
  call void @llvm.lifetime.end.p0(i64 1, ptr nonnull %6) #6
  call void @llvm.lifetime.end.p0(i64 1, ptr nonnull %5) #6
  ret i32 %.1
}